target datalayout = "e-m:e-p270:32:32-p271:32:32-p272:64:64-i64:64-i128:128-f80:128-n8:16:32:64-S128"
target triple = "x86_64-pc-linux-gnu"

%struct.UriTextRangeStructA = type { ptr, ptr }
%struct.UriUriStructA = type { %struct.UriTextRangeStructA, %struct.UriTextRangeStructA, %struct.UriTextRangeStructA, %struct.UriHostDataStructA, %struct.UriTextRangeStructA, ptr, ptr, %struct.UriTextRangeStructA, %struct.UriTextRangeStructA, i32, i32, ptr }
%struct.UriHostDataStructA = type { ptr, ptr, %struct.UriTextRangeStructA }
%struct.UriPathSegmentStructA = type { %struct.UriTextRangeStructA, ptr, ptr }
%struct.UriMemoryManagerStruct = type { ptr, ptr, ptr, ptr, ptr, ptr }

@.str.1 = private unnamed_addr constant [2 x i8] c".\00", align 1

; Function Attrs: nounwind uwtable
define i32 @uriFixAmbiguityA(ptr noundef %0, ptr noundef %1) #0 {
  %3 = alloca i32, align 4
  %4 = alloca ptr, align 8
  %5 = alloca ptr, align 8
  %6 = alloca ptr, align 8
  %7 = alloca i32, align 4
  store ptr %0, ptr %4, align 8, !tbaa !3
  store ptr %1, ptr %5, align 8, !tbaa !16
  call void @llvm.lifetime.start.p0(i64 8, ptr %6) #5
  %8 = load ptr, ptr %4, align 8, !tbaa !3
  %9 = getelementptr inbounds nuw %struct.UriUriStructA, ptr %8, i32 0, i32 9
  %10 = load i32, ptr %9, align 8, !tbaa !47
  %11 = icmp ne i32 %10, 0
  br i1 %11, label %12, label %31

12:                                               ; preds = %2
  %13 = load ptr, ptr %4, align 8, !tbaa !3
  %14 = getelementptr inbounds nuw %struct.UriUriStructA, ptr %13, i32 0, i32 5
  %15 = load ptr, ptr %14, align 8, !tbaa !24
  %16 = icmp ne ptr %15, null
  br i1 %16, label %17, label %31

17:                                               ; preds = %12
  %18 = load ptr, ptr %4, align 8, !tbaa !3
  %19 = getelementptr inbounds nuw %struct.UriUriStructA, ptr %18, i32 0, i32 5
  %20 = load ptr, ptr %19, align 8, !tbaa !24
  %21 = getelementptr inbounds nuw %struct.UriPathSegmentStructA, ptr %20, i32 0, i32 0
  %22 = getelementptr inbounds nuw %struct.UriTextRangeStructA, ptr %21, i32 0, i32 1
  %23 = load ptr, ptr %22, align 8, !tbaa !28
  %24 = load ptr, ptr %4, align 8, !tbaa !3
  %25 = getelementptr inbounds nuw %struct.UriUriStructA, ptr %24, i32 0, i32 5
  %26 = load ptr, ptr %25, align 8, !tbaa !24
  %27 = getelementptr inbounds nuw %struct.UriPathSegmentStructA, ptr %26, i32 0, i32 0
  %28 = getelementptr inbounds nuw %struct.UriTextRangeStructA, ptr %27, i32 0, i32 0
  %29 = load ptr, ptr %28, align 8, !tbaa !29
  %30 = icmp eq ptr %23, %29
  br i1 %30, label %80, label %31

31:                                               ; preds = %17, %12, %2
  %32 = load ptr, ptr %4, align 8, !tbaa !3
  %33 = getelementptr inbounds nuw %struct.UriUriStructA, ptr %32, i32 0, i32 9
  %34 = load i32, ptr %33, align 8, !tbaa !47
  %35 = icmp ne i32 %34, 0
  br i1 %35, label %81, label %36

36:                                               ; preds = %31
  %37 = load ptr, ptr %4, align 8, !tbaa !3
  %38 = getelementptr inbounds nuw %struct.UriUriStructA, ptr %37, i32 0, i32 5
  %39 = load ptr, ptr %38, align 8, !tbaa !24
  %40 = icmp ne ptr %39, null
  br i1 %40, label %41, label %81

41:                                               ; preds = %36
  %42 = load ptr, ptr %4, align 8, !tbaa !3
  %43 = getelementptr inbounds nuw %struct.UriUriStructA, ptr %42, i32 0, i32 5
  %44 = load ptr, ptr %43, align 8, !tbaa !24
  %45 = getelementptr inbounds nuw %struct.UriPathSegmentStructA, ptr %44, i32 0, i32 1
  %46 = load ptr, ptr %45, align 8, !tbaa !31
  %47 = icmp ne ptr %46, null
  br i1 %47, label %48, label %81

48:                                               ; preds = %41
  %49 = load ptr, ptr %4, align 8, !tbaa !3
  %50 = getelementptr inbounds nuw %struct.UriUriStructA, ptr %49, i32 0, i32 5
  %51 = load ptr, ptr %50, align 8, !tbaa !24
  %52 = getelementptr inbounds nuw %struct.UriPathSegmentStructA, ptr %51, i32 0, i32 0
  %53 = getelementptr inbounds nuw %struct.UriTextRangeStructA, ptr %52, i32 0, i32 1
  %54 = load ptr, ptr %53, align 8, !tbaa !28
  %55 = load ptr, ptr %4, align 8, !tbaa !3
  %56 = getelementptr inbounds nuw %struct.UriUriStructA, ptr %55, i32 0, i32 5
  %57 = load ptr, ptr %56, align 8, !tbaa !24
  %58 = getelementptr inbounds nuw %struct.UriPathSegmentStructA, ptr %57, i32 0, i32 0
  %59 = getelementptr inbounds nuw %struct.UriTextRangeStructA, ptr %58, i32 0, i32 0
  %60 = load ptr, ptr %59, align 8, !tbaa !29
  %61 = icmp eq ptr %54, %60
  br i1 %61, label %62, label %81

62:                                               ; preds = %48
  %63 = load ptr, ptr %4, align 8, !tbaa !3
  %64 = getelementptr inbounds nuw %struct.UriUriStructA, ptr %63, i32 0, i32 5
  %65 = load ptr, ptr %64, align 8, !tbaa !24
  %66 = getelementptr inbounds nuw %struct.UriPathSegmentStructA, ptr %65, i32 0, i32 1
  %67 = load ptr, ptr %66, align 8, !tbaa !31
  %68 = getelementptr inbounds nuw %struct.UriPathSegmentStructA, ptr %67, i32 0, i32 0
  %69 = getelementptr inbounds nuw %struct.UriTextRangeStructA, ptr %68, i32 0, i32 1
  %70 = load ptr, ptr %69, align 8, !tbaa !28
  %71 = load ptr, ptr %4, align 8, !tbaa !3
  %72 = getelementptr inbounds nuw %struct.UriUriStructA, ptr %71, i32 0, i32 5
  %73 = load ptr, ptr %72, align 8, !tbaa !24
  %74 = getelementptr inbounds nuw %struct.UriPathSegmentStructA, ptr %73, i32 0, i32 1
  %75 = load ptr, ptr %74, align 8, !tbaa !31
  %76 = getelementptr inbounds nuw %struct.UriPathSegmentStructA, ptr %75, i32 0, i32 0
  %77 = getelementptr inbounds nuw %struct.UriTextRangeStructA, ptr %76, i32 0, i32 0
  %78 = load ptr, ptr %77, align 8, !tbaa !29
  %79 = icmp eq ptr %70, %78
  br i1 %79, label %80, label %81

80:                                               ; preds = %62, %17
  br label %82

81:                                               ; preds = %62, %48, %41, %36, %31
  store i32 1, ptr %3, align 4
  store i32 1, ptr %7, align 4
  br label %106

82:                                               ; preds = %80
  %83 = load ptr, ptr %5, align 8, !tbaa !16
  %84 = getelementptr inbounds nuw %struct.UriMemoryManagerStruct, ptr %83, i32 0, i32 0
  %85 = load ptr, ptr %84, align 8, !tbaa !44
  %86 = load ptr, ptr %5, align 8, !tbaa !16
  %87 = call ptr %85(ptr noundef %86, i64 noundef 32)
  store ptr %87, ptr %6, align 8, !tbaa !25
  %88 = load ptr, ptr %6, align 8, !tbaa !25
  %89 = icmp eq ptr %88, null
  br i1 %89, label %90, label %91

90:                                               ; preds = %82
  store i32 0, ptr %3, align 4
  store i32 1, ptr %7, align 4
  br label %106

91:                                               ; preds = %82
  %92 = load ptr, ptr %4, align 8, !tbaa !3
  %93 = getelementptr inbounds nuw %struct.UriUriStructA, ptr %92, i32 0, i32 5
  %94 = load ptr, ptr %93, align 8, !tbaa !24
  %95 = load ptr, ptr %6, align 8, !tbaa !25
  %96 = getelementptr inbounds nuw %struct.UriPathSegmentStructA, ptr %95, i32 0, i32 1
  store ptr %94, ptr %96, align 8, !tbaa !31
  %97 = load ptr, ptr %6, align 8, !tbaa !25
  %98 = getelementptr inbounds nuw %struct.UriPathSegmentStructA, ptr %97, i32 0, i32 0
  %99 = getelementptr inbounds nuw %struct.UriTextRangeStructA, ptr %98, i32 0, i32 0
  store ptr @.str.1, ptr %99, align 8, !tbaa !29
  %100 = load ptr, ptr %6, align 8, !tbaa !25
  %101 = getelementptr inbounds nuw %struct.UriPathSegmentStructA, ptr %100, i32 0, i32 0
  %102 = getelementptr inbounds nuw %struct.UriTextRangeStructA, ptr %101, i32 0, i32 1
  store ptr getelementptr inbounds (i8, ptr @.str.1, i64 1), ptr %102, align 8, !tbaa !28
  %103 = load ptr, ptr %6, align 8, !tbaa !25
  %104 = load ptr, ptr %4, align 8, !tbaa !3
  %105 = getelementptr inbounds nuw %struct.UriUriStructA, ptr %104, i32 0, i32 5
  store ptr %103, ptr %105, align 8, !tbaa !24
  store i32 1, ptr %3, align 4
  store i32 1, ptr %7, align 4
  br label %106

106:                                              ; preds = %91, %90, %81
  call void @llvm.lifetime.end.p0(i64 8, ptr %6) #5
  %107 = load i32, ptr %3, align 4
  ret i32 %107
}