; Function Attrs: nounwind uwtable
define range(i32 0, 2) i32 @uriFixAmbiguityA(ptr noundef captures(none) %0, ptr noundef %1) local_unnamed_addr #4 {
  %3 = getelementptr inbounds nuw i8, ptr %0, i64 144
  %4 = load i32, ptr %3, align 8, !tbaa !39
  %.not = icmp eq i32 %4, 0
  %5 = getelementptr inbounds nuw i8, ptr %0, i64 96
  %6 = load ptr, ptr %5, align 8, !tbaa !17
  %.not26 = icmp eq ptr %6, null
  br i1 %.not, label %13, label %7

7:                                                ; preds = %2
  br i1 %.not26, label %.thread, label %8

8:                                                ; preds = %7
  %9 = getelementptr inbounds nuw i8, ptr %6, i64 8
  %10 = load ptr, ptr %9, align 8, !tbaa !20
  %11 = load ptr, ptr %6, align 8, !tbaa !21
  %12 = icmp eq ptr %10, %11
  br i1 %12, label %27, label %.thread

13:                                               ; preds = %2
  br i1 %.not26, label %.thread, label %14

14:                                               ; preds = %13
  %15 = getelementptr inbounds nuw i8, ptr %6, i64 16
  %16 = load ptr, ptr %15, align 8, !tbaa !23
  %.not27 = icmp eq ptr %16, null
  br i1 %.not27, label %.thread, label %17

17:                                               ; preds = %14
  %18 = getelementptr inbounds nuw i8, ptr %6, i64 8
  %19 = load ptr, ptr %18, align 8, !tbaa !20
  %20 = load ptr, ptr %6, align 8, !tbaa !21
  %21 = icmp eq ptr %19, %20
  br i1 %21, label %22, label %.thread

22:                                               ; preds = %17
  %23 = getelementptr inbounds nuw i8, ptr %16, i64 8
  %24 = load ptr, ptr %23, align 8, !tbaa !20
  %25 = load ptr, ptr %16, align 8, !tbaa !21
  %26 = icmp eq ptr %24, %25
  br i1 %26, label %27, label %.thread

27:                                               ; preds = %8, %22
  %28 = load ptr, ptr %1, align 8, !tbaa !35
  %29 = tail call ptr %28(ptr noundef nonnull %1, i64 noundef 32) #11
  %30 = icmp eq ptr %29, null
  br i1 %30, label %.thread, label %31

31:                                               ; preds = %27
  %32 = getelementptr inbounds nuw i8, ptr %0, i64 96
  %33 = load ptr, ptr %32, align 8, !tbaa !17
  %34 = getelementptr inbounds nuw i8, ptr %29, i64 16
  store ptr %33, ptr %34, align 8, !tbaa !23
  store ptr @.str.1, ptr %29, align 8, !tbaa !21
  %35 = getelementptr inbounds nuw i8, ptr %29, i64 8
  store ptr getelementptr inbounds nuw (i8, ptr @.str.1, i64 1), ptr %35, align 8, !tbaa !20
  store ptr %29, ptr %32, align 8, !tbaa !17
  br label %.thread

.thread:                                          ; preds = %7, %8, %27, %13, %14, %17, %22, %31
  %.0 = phi i32 [ 1, %31 ], [ 1, %22 ], [ 1, %17 ], [ 1, %14 ], [ 1, %13 ], [ 0, %27 ], [ 1, %8 ], [ 1, %7 ]
  ret i32 %.0
}